; Function Attrs: mustprogress nofree nosync nounwind willreturn memory(read, inaccessiblemem: none) uwtable
define noundef zeroext i1 @_ZN5Yosys3AST7AstNode25has_const_only_constructsEv(ptr noundef nonnull readonly align 8 captures(none) dereferenceable(284) %0) local_unnamed_addr #15 align 2 {
  %2 = getelementptr inbounds nuw i8, ptr %0, i64 4
  %3 = load i32, ptr %2, align 4, !tbaa !49
  %.off = add i32 %3, -91
  %switch9 = icmp ult i32 %.off, 2
  br i1 %switch9, label %.loopexit, label %4

4:                                                ; preds = %1
  %5 = getelementptr inbounds nuw i8, ptr %0, i64 8
  %6 = load ptr, ptr %5, align 8, !tbaa !50
  %7 = getelementptr inbounds nuw i8, ptr %0, i64 16
  %8 = load ptr, ptr %7, align 8, !tbaa !50
  %.not13.not = icmp eq ptr %6, %8
  br i1 %.not13.not, label %.loopexit, label %.lr.ph

.lr.ph:                                           ; preds = %4, %.lr.ph
  %.sroa.010.014 = phi ptr [ %11, %.lr.ph ], [ %6, %4 ]
  %9 = load ptr, ptr %.sroa.010.014, align 8, !tbaa !51
  %10 = tail call noundef zeroext i1 @_ZN5Yosys3AST7AstNode25has_const_only_constructsEv(ptr noundef nonnull align 8 dereferenceable(284) %9)
  %11 = getelementptr inbounds nuw i8, ptr %.sroa.010.014, i64 8
  %.not.not = icmp eq ptr %11, %8
  %or.cond = select i1 %10, i1 true, i1 %.not.not
  br i1 %or.cond, label %.loopexit, label %.lr.ph

.loopexit:                                        ; preds = %.lr.ph, %4, %1
  %.0 = phi i1 [ true, %1 ], [ false, %4 ], [ %10, %.lr.ph ]
  ret i1 %.0
}